target datalayout = "e-m:e-p270:32:32-p271:32:32-p272:64:64-i64:64-i128:128-f80:128-n8:16:32:64-S128"
target triple = "x86_64-unknown-linux-gnu"

%"class.zmq::stream_engine_base_t" = type <{ %"class.zmq::io_object_t", %"struct.zmq::i_engine", %"struct.zmq::options_t", ptr, i64, ptr, ptr, i64, ptr, ptr, { i64, i64 }, { i64, i64 }, ptr, i8, i8, [6 x i8], %"struct.zmq::endpoint_uri_pair_t", i8, i8, i8, i8, [4 x i8], %"class.std::__cxx11::basic_string", i32, [4 x i8], ptr, i8, i8, [6 x i8], %"class.zmq::msg_t", i8, [7 x i8], ptr, ptr, i8, [7 x i8] }>
%"class.zmq::io_object_t" = type { %"struct.zmq::i_poll_events", ptr }
%"struct.zmq::i_poll_events" = type { ptr }
%"struct.zmq::i_engine" = type { ptr }
%"struct.zmq::options_t" = type { i32, i32, i64, i8, [256 x i8], i32, i32, i32, i32, i32, i32, i32, i32, i8, %"struct.zmq::atomic_value_t", i32, i32, i32, i32, i32, i32, i64, i32, i32, i8, i32, i8, i8, i8, i8, i8, %"class.std::__cxx11::basic_string", %"class.std::__cxx11::basic_string", %"class.std::__cxx11::basic_string", i32, i32, i32, i32, %"class.std::vector", %"class.std::set", %"class.std::set", %"class.std::set.6", i32, i32, %"class.std::__cxx11::basic_string", %"class.std::__cxx11::basic_string", %"class.std::__cxx11::basic_string", [32 x i8], [32 x i8], [32 x i8], %"class.std::__cxx11::basic_string", %"class.std::__cxx11::basic_string", i32, i32, i8, i32, i8, i32, i8, i16, i32, i32, i32, %"class.std::__cxx11::basic_string", i8, i8, i8, i32, i32, i8, i32, %"class.std::map", i32, %"class.std::__cxx11::basic_string", %"class.std::__cxx11::basic_string", %"class.std::__cxx11::basic_string", %"class.std::__cxx11::basic_string", i8, %"class.std::vector.21", i8, %"class.std::vector.21", i8, %"class.std::vector.21", i8, i32, i8, i32, i32, i32, i32, i32, i8, i32 }
%"struct.zmq::atomic_value_t" = type { %"struct.std::atomic" }
%"struct.std::atomic" = type { %"struct.std::__atomic_base" }
%"struct.std::__atomic_base" = type { i32 }
%"class.std::vector" = type { %"struct.std::_Vector_base" }
%"struct.std::_Vector_base" = type { %"struct.std::_Vector_base<zmq::tcp_address_mask_t, std::allocator<zmq::tcp_address_mask_t>>::_Vector_impl" }
%"struct.std::_Vector_base<zmq::tcp_address_mask_t, std::allocator<zmq::tcp_address_mask_t>>::_Vector_impl" = type { %"struct.std::_Vector_base<zmq::tcp_address_mask_t, std::allocator<zmq::tcp_address_mask_t>>::_Vector_impl_data" }
%"struct.std::_Vector_base<zmq::tcp_address_mask_t, std::allocator<zmq::tcp_address_mask_t>>::_Vector_impl_data" = type { ptr, ptr, ptr }
%"class.std::set" = type { %"class.std::_Rb_tree" }
%"class.std::_Rb_tree" = type { %"struct.std::_Rb_tree<unsigned int, unsigned int, std::_Identity<unsigned int>, std::less<unsigned int>>::_Rb_tree_impl" }
%"struct.std::_Rb_tree<unsigned int, unsigned int, std::_Identity<unsigned int>, std::less<unsigned int>>::_Rb_tree_impl" = type { %"struct.std::_Rb_tree_key_compare", %"struct.std::_Rb_tree_header" }
%"struct.std::_Rb_tree_key_compare" = type { %"struct.std::less" }
%"struct.std::less" = type { i8 }
%"struct.std::_Rb_tree_header" = type { %"struct.std::_Rb_tree_node_base", i64 }
%"struct.std::_Rb_tree_node_base" = type { i32, ptr, ptr, ptr }
%"class.std::set.6" = type { %"class.std::_Rb_tree.7" }
%"class.std::_Rb_tree.7" = type { %"struct.std::_Rb_tree<int, int, std::_Identity<int>, std::less<int>>::_Rb_tree_impl" }
%"struct.std::_Rb_tree<int, int, std::_Identity<int>, std::less<int>>::_Rb_tree_impl" = type { %"struct.std::_Rb_tree_key_compare.11", %"struct.std::_Rb_tree_header" }
%"struct.std::_Rb_tree_key_compare.11" = type { %"struct.std::less.12" }
%"struct.std::less.12" = type { i8 }
%"class.std::map" = type { %"class.std::_Rb_tree.14" }
%"class.std::_Rb_tree.14" = type { %"struct.std::_Rb_tree<std::__cxx11::basic_string<char>, std::pair<const std::__cxx11::basic_string<char>, std::__cxx11::basic_string<char>>, std::_Select1st<std::pair<const std::__cxx11::basic_string<char>, std::__cxx11::basic_string<char>>>, std::less<std::__cxx11::basic_string<char>>>::_Rb_tree_impl" }
%"struct.std::_Rb_tree<std::__cxx11::basic_string<char>, std::pair<const std::__cxx11::basic_string<char>, std::__cxx11::basic_string<char>>, std::_Select1st<std::pair<const std::__cxx11::basic_string<char>, std::__cxx11::basic_string<char>>>, std::less<std::__cxx11::basic_string<char>>>::_Rb_tree_impl" = type { %"struct.std::_Rb_tree_key_compare.18", %"struct.std::_Rb_tree_header" }
%"struct.std::_Rb_tree_key_compare.18" = type { %"struct.std::less.19" }
%"struct.std::less.19" = type { i8 }
%"class.std::vector.21" = type { %"struct.std::_Vector_base.22" }
%"struct.std::_Vector_base.22" = type { %"struct.std::_Vector_base<unsigned char, std::allocator<unsigned char>>::_Vector_impl" }
%"struct.std::_Vector_base<unsigned char, std::allocator<unsigned char>>::_Vector_impl" = type { %"struct.std::_Vector_base<unsigned char, std::allocator<unsigned char>>::_Vector_impl_data" }
%"struct.std::_Vector_base<unsigned char, std::allocator<unsigned char>>::_Vector_impl_data" = type { ptr, ptr, ptr }
%"struct.zmq::endpoint_uri_pair_t" = type <{ %"class.std::__cxx11::basic_string", %"class.std::__cxx11::basic_string", i32, [4 x i8] }>
%"class.std::__cxx11::basic_string" = type { %"struct.std::__cxx11::basic_string<char>::_Alloc_hider", i64, %union.anon }
%"struct.std::__cxx11::basic_string<char>::_Alloc_hider" = type { ptr }
%union.anon = type { i64, [8 x i8] }
%"class.zmq::msg_t" = type { %union.anon.26 }
%union.anon.26 = type { %struct.anon }
%struct.anon = type { ptr, [34 x i8], i8, i8, i32, %"union.zmq::msg_t::group_t" }
%"union.zmq::msg_t::group_t" = type { %struct.anon.28 }
%struct.anon.28 = type { i8, ptr }

@stderr = external global ptr, align 8
@.str.1 = private unnamed_addr constant [118 x i8] c"generated/home/dtcxzyw/WorkSpace/Projects/compilers/llvm-opt-benchmark/bench/libzmq/libzmq/src/stream_engine_base.cpp\00", align 1
@.str.2 = private unnamed_addr constant [30 x i8] c"Assertion failed: %s (%s:%d)\0A\00", align 1
@.str.3 = private unnamed_addr constant [10 x i8] c"!_plugged\00", align 1
@.str.4 = private unnamed_addr constant [10 x i8] c"!_session\00", align 1
@.str.5 = private unnamed_addr constant [9 x i8] c"session_\00", align 1

; Function Attrs: mustprogress uwtable
define void @_ZN3zmq20stream_engine_base_t4plugEPNS_11io_thread_tEPNS_14session_base_tE(ptr noundef nonnull align 8 dereferenceable(1689) %this, ptr noundef %io_thread_, ptr noundef %session_) unnamed_addr #0 align 2 {
entry:
  %this.addr = alloca ptr, align 8
  %io_thread_.addr = alloca ptr, align 8
  %session_.addr = alloca ptr, align 8
  store ptr %this, ptr %this.addr, align 8
  store ptr %io_thread_, ptr %io_thread_.addr, align 8
  store ptr %session_, ptr %session_.addr, align 8
  %this1 = load ptr, ptr %this.addr, align 8
  br label %do.body

do.body:                                          ; preds = %entry
  %_plugged = getelementptr inbounds %"class.zmq::stream_engine_base_t", ptr %this1, i32 0, i32 26
  %0 = load i8, ptr %_plugged, align 8
  %tobool = trunc i8 %0 to i1
  %lnot = xor i1 %tobool, true
  %lnot2 = xor i1 %lnot, true
  br i1 %lnot2, label %if.then, label %if.end

if.then:                                          ; preds = %do.body
  %1 = load ptr, ptr @stderr, align 8
  %call = call i32 (ptr, ptr, ...) @fprintf(ptr noundef %1, ptr noundef @.str.2, ptr noundef @.str.3, ptr noundef @.str.1, i32 noundef 155)
  %2 = load ptr, ptr @stderr, align 8
  %call3 = call i32 @fflush(ptr noundef %2)
  call void @_ZN3zmq9zmq_abortEPKc(ptr noundef @.str.3)
  br label %if.end

if.end:                                           ; preds = %if.then, %do.body
  br label %do.end

do.end:                                           ; preds = %if.end
  %_plugged4 = getelementptr inbounds %"class.zmq::stream_engine_base_t", ptr %this1, i32 0, i32 26
  store i8 1, ptr %_plugged4, align 8
  br label %do.body5

do.body5:                                         ; preds = %do.end
  %_session = getelementptr inbounds %"class.zmq::stream_engine_base_t", ptr %this1, i32 0, i32 32
  %3 = load ptr, ptr %_session, align 8
  %tobool6 = icmp ne ptr %3, null
  %lnot7 = xor i1 %tobool6, true
  %lnot8 = xor i1 %lnot7, true
  br i1 %lnot8, label %if.then9, label %if.end12

if.then9:                                         ; preds = %do.body5
  %4 = load ptr, ptr @stderr, align 8
  %call10 = call i32 (ptr, ptr, ...) @fprintf(ptr noundef %4, ptr noundef @.str.2, ptr noundef @.str.4, ptr noundef @.str.1, i32 noundef 159)
  %5 = load ptr, ptr @stderr, align 8
  %call11 = call i32 @fflush(ptr noundef %5)
  call void @_ZN3zmq9zmq_abortEPKc(ptr noundef @.str.4)
  br label %if.end12

if.end12:                                         ; preds = %if.then9, %do.body5
  br label %do.end13

do.end13:                                         ; preds = %if.end12
  br label %do.body14

do.body14:                                        ; preds = %do.end13
  %6 = load ptr, ptr %session_.addr, align 8
  %tobool15 = icmp ne ptr %6, null
  %lnot16 = xor i1 %tobool15, true
  br i1 %lnot16, label %if.then17, label %if.end20

if.then17:                                        ; preds = %do.body14
  %7 = load ptr, ptr @stderr, align 8
  %call18 = call i32 (ptr, ptr, ...) @fprintf(ptr noundef %7, ptr noundef @.str.2, ptr noundef @.str.5, ptr noundef @.str.1, i32 noundef 160)
  %8 = load ptr, ptr @stderr, align 8
  %call19 = call i32 @fflush(ptr noundef %8)
  call void @_ZN3zmq9zmq_abortEPKc(ptr noundef @.str.5)
  br label %if.end20

if.end20:                                         ; preds = %if.then17, %do.body14
  br label %do.end21

do.end21:                                         ; preds = %if.end20
  %9 = load ptr, ptr %session_.addr, align 8
  %_session22 = getelementptr inbounds %"class.zmq::stream_engine_base_t", ptr %this1, i32 0, i32 32
  store ptr %9, ptr %_session22, align 8
  %_session23 = getelementptr inbounds %"class.zmq::stream_engine_base_t", ptr %this1, i32 0, i32 32
  %10 = load ptr, ptr %_session23, align 8
  %call24 = call noundef ptr @_ZNK3zmq14session_base_t10get_socketEv(ptr noundef nonnull align 8 dereferenceable(1624) %10)
  %_socket = getelementptr inbounds %"class.zmq::stream_engine_base_t", ptr %this1, i32 0, i32 33
  store ptr %call24, ptr %_socket, align 8
  %11 = load ptr, ptr %io_thread_.addr, align 8
  call void @_ZN3zmq11io_object_t4plugEPNS_11io_thread_tE(ptr noundef nonnull align 8 dereferenceable(16) %this1, ptr noundef %11)
  %_s = getelementptr inbounds %"class.zmq::stream_engine_base_t", ptr %this1, i32 0, i32 23
  %12 = load i32, ptr %_s, align 8
  %call25 = call noundef ptr @_ZN3zmq11io_object_t6add_fdEi(ptr noundef nonnull align 8 dereferenceable(16) %this1, i32 noundef %12)
  %_handle = getelementptr inbounds %"class.zmq::stream_engine_base_t", ptr %this1, i32 0, i32 25
  store ptr %call25, ptr %_handle, align 8
  %_io_error = getelementptr inbounds %"class.zmq::stream_engine_base_t", ptr %this1, i32 0, i32 30
  store i8 0, ptr %_io_error, align 8
  %vtable = load ptr, ptr %this1, align 8
  %vfn = getelementptr inbounds ptr, ptr %vtable, i64 15
  %13 = load ptr, ptr %vfn, align 8
  call void %13(ptr noundef nonnull align 8 dereferenceable(1689) %this1)
  ret void
}