; Function Attrs: mustprogress uwtable
define void @_ZN3zmq20stream_engine_base_t4plugEPNS_11io_thread_tEPNS_14session_base_tE(ptr noundef nonnull align 8 dereferenceable(1689) %this, ptr noundef %io_thread_, ptr noundef %session_) unnamed_addr #0 align 2 {
entry:
  %_plugged = getelementptr inbounds i8, ptr %this, i64 1592
  %0 = load i8, ptr %_plugged, align 8
  %1 = and i8 %0, 1
  %tobool.not = icmp eq i8 %1, 0
  br i1 %tobool.not, label %do.end, label %if.then

if.then:                                          ; preds = %entry
  %2 = load ptr, ptr @stderr, align 8
  %call = tail call i32 (ptr, ptr, ...) @fprintf(ptr noundef %2, ptr noundef nonnull @.str.2, ptr noundef nonnull @.str.3, ptr noundef nonnull @.str.1, i32 noundef 155) #21
  %3 = load ptr, ptr @stderr, align 8
  %call3 = tail call i32 @fflush(ptr noundef %3)
  tail call void @_ZN3zmq9zmq_abortEPKc(ptr noundef nonnull @.str.3)
  br label %do.end

do.end:                                           ; preds = %entry, %if.then
  store i8 1, ptr %_plugged, align 8
  %_session = getelementptr inbounds i8, ptr %this, i64 1672
  %4 = load ptr, ptr %_session, align 8
  %tobool6.not = icmp eq ptr %4, null
  br i1 %tobool6.not, label %do.body14, label %if.then9

if.then9:                                         ; preds = %do.end
  %5 = load ptr, ptr @stderr, align 8
  %call10 = tail call i32 (ptr, ptr, ...) @fprintf(ptr noundef %5, ptr noundef nonnull @.str.2, ptr noundef nonnull @.str.4, ptr noundef nonnull @.str.1, i32 noundef 159) #21
  %6 = load ptr, ptr @stderr, align 8
  %call11 = tail call i32 @fflush(ptr noundef %6)
  tail call void @_ZN3zmq9zmq_abortEPKc(ptr noundef nonnull @.str.4)
  br label %do.body14

do.body14:                                        ; preds = %if.then9, %do.end
  %tobool15.not = icmp eq ptr %session_, null
  br i1 %tobool15.not, label %if.then17, label %do.end21

if.then17:                                        ; preds = %do.body14
  %7 = load ptr, ptr @stderr, align 8
  %call18 = tail call i32 (ptr, ptr, ...) @fprintf(ptr noundef %7, ptr noundef nonnull @.str.2, ptr noundef nonnull @.str.5, ptr noundef nonnull @.str.1, i32 noundef 160) #21
  %8 = load ptr, ptr @stderr, align 8
  %call19 = tail call i32 @fflush(ptr noundef %8)
  tail call void @_ZN3zmq9zmq_abortEPKc(ptr noundef nonnull @.str.5)
  br label %do.end21

do.end21:                                         ; preds = %do.body14, %if.then17
  store ptr %session_, ptr %_session, align 8
  %call24 = tail call noundef ptr @_ZNK3zmq14session_base_t10get_socketEv(ptr noundef nonnull align 8 dereferenceable(1624) %session_)
  %_socket = getelementptr inbounds i8, ptr %this, i64 1680
  store ptr %call24, ptr %_socket, align 8
  tail call void @_ZN3zmq11io_object_t4plugEPNS_11io_thread_tE(ptr noundef nonnull align 8 dereferenceable(16) %this, ptr noundef %io_thread_)
  %_s = getelementptr inbounds i8, ptr %this, i64 1576
  %9 = load i32, ptr %_s, align 8
  %call25 = tail call noundef ptr @_ZN3zmq11io_object_t6add_fdEi(ptr noundef nonnull align 8 dereferenceable(16) %this, i32 noundef %9)
  %_handle = getelementptr inbounds i8, ptr %this, i64 1584
  store ptr %call25, ptr %_handle, align 8
  %_io_error = getelementptr inbounds i8, ptr %this, i64 1664
  store i8 0, ptr %_io_error, align 8
  %vtable = load ptr, ptr %this, align 8
  %vfn = getelementptr inbounds i8, ptr %vtable, i64 120
  %10 = load ptr, ptr %vfn, align 8
  tail call void %10(ptr noundef nonnull align 8 dereferenceable(1689) %this)
  ret void
}